; Function Attrs: nounwind uwtable
define void @png_set_text(ptr noalias noundef %0, ptr noalias noundef %1, ptr noundef %2, i32 noundef %3) local_unnamed_addr #2 {
  %5 = tail call i32 @png_set_text_2(ptr noundef %0, ptr noundef %1, ptr noundef %2, i32 noundef %3)
  %.not = icmp eq i32 %5, 0
  br i1 %.not, label %7, label %6

6:                                                ; preds = %4
  tail call void @png_error(ptr noundef %0, ptr noundef nonnull @.str.34) #14
  unreachable

7:                                                ; preds = %4
  ret void
}